; Function Attrs: mustprogress nounwind uwtable
define dso_local void @_ZNK5clang4ento11FieldRegion7ProfileERN4llvm16FoldingSetNodeIDE(ptr noundef nonnull align 8 dereferenceable(64) %0, ptr noundef nonnull align 8 dereferenceable(144) %1) unnamed_addr #3 align 2 {
  %3 = load ptr, ptr %0, align 8
  %4 = getelementptr inbounds i8, ptr %3, i64 112
  %5 = load ptr, ptr %4, align 8
  %6 = tail call noundef nonnull ptr %5(ptr noundef nonnull align 8 dereferenceable(64) %0) #20
  %7 = getelementptr inbounds nuw i8, ptr %0, i64 48
  %8 = load ptr, ptr %7, align 8
  tail call void @_ZN5clang4ento11FieldRegion13ProfileRegionERN4llvm16FoldingSetNodeIDEPKNS_9FieldDeclEPKNS0_9MemRegionE(ptr noundef nonnull align 8 dereferenceable(144) %1, ptr noundef nonnull %6, ptr noundef %8)
  ret void
}